target datalayout = "e-m:e-p270:32:32-p271:32:32-p272:64:64-i64:64-i128:128-f80:128-n8:16:32:64-S128"
target triple = "x86_64-pc-linux-gnu"

%struct.CompactAttribute = type { i32, i16, i8, i8, i8, i8, i8, i8, i8 }
%struct.TupleDescData = type { i32, i32, i32, i32, ptr, [0 x %struct.CompactAttribute] }

; Function Attrs: inlinehint nounwind uwtable
define internal i64 @PointerGetDatum(ptr noundef %0) #2 {
  %2 = alloca ptr, align 8
  store ptr %0, ptr %2, align 8
  %3 = load ptr, ptr %2, align 8
  %4 = ptrtoint ptr %3 to i64
  ret i64 %4
}

; Function Attrs: inlinehint nounwind uwtable
define internal ptr @TupleDescCompactAttr(ptr noundef %0, i32 noundef %1) #2 {
  %3 = alloca ptr, align 8
  %4 = alloca i32, align 4
  %5 = alloca ptr, align 8
  store ptr %0, ptr %3, align 8
  store i32 %1, ptr %4, align 4
  call void @llvm.lifetime.start.p0(i64 8, ptr %5) #8
  %6 = load ptr, ptr %3, align 8
  %7 = getelementptr inbounds nuw %struct.TupleDescData, ptr %6, i32 0, i32 5
  %8 = load i32, ptr %4, align 4
  %9 = sext i32 %8 to i64
  %10 = getelementptr inbounds [0 x %struct.CompactAttribute], ptr %7, i64 0, i64 %9
  store ptr %10, ptr %5, align 8
  %11 = load ptr, ptr %5, align 8
  call void @llvm.lifetime.end.p0(i64 8, ptr %5) #8
  ret ptr %11
}

; Function Attrs: nounwind uwtable
define dso_local void @heap_fill_tuple(ptr noundef %0, ptr noundef %1, ptr noundef %2, ptr noundef %3, i64 noundef %4, ptr noundef %5, ptr noundef %6) #0 {
  %8 = alloca ptr, align 8
  %9 = alloca ptr, align 8
  %10 = alloca ptr, align 8
  %11 = alloca ptr, align 8
  %12 = alloca i64, align 8
  %13 = alloca ptr, align 8
  %14 = alloca ptr, align 8
  %15 = alloca ptr, align 8
  %16 = alloca i32, align 4
  %17 = alloca i32, align 4
  %18 = alloca i32, align 4
  %19 = alloca ptr, align 8
  store ptr %0, ptr %8, align 8
  store ptr %1, ptr %9, align 8
  store ptr %2, ptr %10, align 8
  store ptr %3, ptr %11, align 8
  store i64 %4, ptr %12, align 8
  store ptr %5, ptr %13, align 8
  store ptr %6, ptr %14, align 8
  call void @llvm.lifetime.start.p0(i64 8, ptr %15) #8
  call void @llvm.lifetime.start.p0(i64 4, ptr %16) #8
  call void @llvm.lifetime.start.p0(i64 4, ptr %17) #8
  call void @llvm.lifetime.start.p0(i64 4, ptr %18) #8
  %20 = load ptr, ptr %8, align 8
  %21 = getelementptr inbounds nuw %struct.TupleDescData, ptr %20, i32 0, i32 0
  %22 = load i32, ptr %21, align 8
  store i32 %22, ptr %18, align 4
  %23 = load ptr, ptr %14, align 8
  %24 = icmp ne ptr %23, null
  br i1 %24, label %25, label %28

25:                                               ; preds = %7
  %26 = load ptr, ptr %14, align 8
  %27 = getelementptr inbounds i8, ptr %26, i64 -1
  store ptr %27, ptr %15, align 8
  store i32 128, ptr %16, align 4
  br label %29

28:                                               ; preds = %7
  store ptr null, ptr %15, align 8
  store i32 0, ptr %16, align 4
  br label %29

29:                                               ; preds = %28, %25
  %30 = load ptr, ptr %13, align 8
  %31 = load i16, ptr %30, align 2
  %32 = zext i16 %31 to i32
  %33 = and i32 %32, -8
  %34 = trunc i32 %33 to i16
  store i16 %34, ptr %30, align 2
  store i32 0, ptr %17, align 4
  br label %35

35:                                               ; preds = %77, %29
  %36 = load i32, ptr %17, align 4
  %37 = load i32, ptr %18, align 4
  %38 = icmp slt i32 %36, %37
  br i1 %38, label %39, label %80

39:                                               ; preds = %35
  call void @llvm.lifetime.start.p0(i64 8, ptr %19) #8
  %40 = load ptr, ptr %8, align 8
  %41 = load i32, ptr %17, align 4
  %42 = call ptr @TupleDescCompactAttr(ptr noundef %40, i32 noundef %41)
  store ptr %42, ptr %19, align 8
  %43 = load ptr, ptr %19, align 8
  %44 = load ptr, ptr %15, align 8
  %45 = icmp ne ptr %44, null
  br i1 %45, label %46, label %47

46:                                               ; preds = %39
  br label %48

47:                                               ; preds = %39
  br label %48

48:                                               ; preds = %47, %46
  %49 = phi ptr [ %15, %46 ], [ null, %47 ]
  %50 = load ptr, ptr %13, align 8
  %51 = load ptr, ptr %9, align 8
  %52 = icmp ne ptr %51, null
  br i1 %52, label %53, label %59

53:                                               ; preds = %48
  %54 = load ptr, ptr %9, align 8
  %55 = load i32, ptr %17, align 4
  %56 = sext i32 %55 to i64
  %57 = getelementptr inbounds i64, ptr %54, i64 %56
  %58 = load i64, ptr %57, align 8
  br label %61

59:                                               ; preds = %48
  %60 = call i64 @PointerGetDatum(ptr noundef null)
  br label %61

61:                                               ; preds = %59, %53
  %62 = phi i64 [ %58, %53 ], [ %60, %59 ]
  %63 = load ptr, ptr %10, align 8
  %64 = icmp ne ptr %63, null
  br i1 %64, label %65, label %73

65:                                               ; preds = %61
  %66 = load ptr, ptr %10, align 8
  %67 = load i32, ptr %17, align 4
  %68 = sext i32 %67 to i64
  %69 = getelementptr inbounds i8, ptr %66, i64 %68
  %70 = load i8, ptr %69, align 1, !range !4, !noundef !5
  %71 = trunc i8 %70 to i1
  %72 = zext i1 %71 to i32
  br label %74

73:                                               ; preds = %61
  br label %74

74:                                               ; preds = %73, %65
  %75 = phi i32 [ %72, %65 ], [ 1, %73 ]
  %76 = icmp ne i32 %75, 0
  call void @fill_val(ptr noundef %43, ptr noundef %49, ptr noundef %16, ptr noundef %11, ptr noundef %50, i64 noundef %62, i1 noundef zeroext %76)
  call void @llvm.lifetime.end.p0(i64 8, ptr %19) #8
  br label %77

77:                                               ; preds = %74
  %78 = load i32, ptr %17, align 4
  %79 = add i32 %78, 1
  store i32 %79, ptr %17, align 4
  br label %35, !llvm.loop !8

80:                                               ; preds = %35
  call void @llvm.lifetime.end.p0(i64 4, ptr %18) #8
  call void @llvm.lifetime.end.p0(i64 4, ptr %17) #8
  call void @llvm.lifetime.end.p0(i64 4, ptr %16) #8
  call void @llvm.lifetime.end.p0(i64 8, ptr %15) #8
  ret void
}