; Function Attrs: nounwind uwtable
define dso_local void @heap_fill_tuple(ptr noundef readonly captures(none) %0, ptr noundef readonly captures(address_is_null) %1, ptr noundef readonly captures(address_is_null) %2, ptr noundef %3, i64 %4, ptr noundef captures(none) %5, ptr noundef %6) local_unnamed_addr #0 {
  %8 = alloca ptr, align 8
  %9 = alloca ptr, align 8
  %10 = alloca i32, align 4
  store ptr %3, ptr %8, align 8
  call void @llvm.lifetime.start.p0(i64 8, ptr nonnull %9) #12
  call void @llvm.lifetime.start.p0(i64 4, ptr nonnull %10) #12
  %11 = load i32, ptr %0, align 8
  %.not = icmp eq ptr %6, null
  %12 = getelementptr inbounds i8, ptr %6, i64 -1
  %storemerge19 = select i1 %.not, ptr null, ptr %12
  %storemerge = select i1 %.not, i32 0, i32 128
  store ptr %storemerge19, ptr %9, align 8
  store i32 %storemerge, ptr %10, align 4
  %13 = load i16, ptr %5, align 2
  %14 = and i16 %13, -8
  store i16 %14, ptr %5, align 2
  %15 = icmp sgt i32 %11, 0
  br i1 %15, label %.lr.ph, label %._crit_edge

.lr.ph:                                           ; preds = %7
  %16 = getelementptr inbounds nuw i8, ptr %0, i64 24
  %.not21 = icmp eq ptr %1, null
  %.not22 = icmp eq ptr %2, null
  %wide.trip.count44 = zext nneg i32 %11 to i64
  br i1 %.not22, label %.lr.ph.split.us, label %.lr.ph.split

.lr.ph.split.us:                                  ; preds = %.lr.ph
  br i1 %.not21, label %.lr.ph.split.us.split.us, label %.lr.ph.split.us.split

.lr.ph.split.us.split.us:                         ; preds = %.lr.ph.split.us, %.lr.ph.split.us.split.us
  %indvars.iv41 = phi i64 [ %indvars.iv.next42, %.lr.ph.split.us.split.us ], [ 0, %.lr.ph.split.us ]
  %17 = getelementptr inbounds nuw [0 x %struct.CompactAttribute], ptr %16, i64 0, i64 %indvars.iv41
  %18 = load ptr, ptr %9, align 8
  %.not20.us.us = icmp eq ptr %18, null
  %..us.us = select i1 %.not20.us.us, ptr null, ptr %9
  call fastcc void @fill_val(ptr noundef nonnull %17, ptr noundef %..us.us, ptr noundef %10, ptr noundef %8, ptr noundef nonnull %5, i64 noundef 0, i1 noundef zeroext true)
  %indvars.iv.next42 = add nuw nsw i64 %indvars.iv41, 1
  %exitcond45.not = icmp eq i64 %indvars.iv.next42, %wide.trip.count44
  br i1 %exitcond45.not, label %._crit_edge, label %.lr.ph.split.us.split.us, !llvm.loop !8

.lr.ph.split.us.split:                            ; preds = %.lr.ph.split.us, %.lr.ph.split.us.split
  %indvars.iv36 = phi i64 [ %indvars.iv.next37, %.lr.ph.split.us.split ], [ 0, %.lr.ph.split.us ]
  %19 = getelementptr inbounds nuw [0 x %struct.CompactAttribute], ptr %16, i64 0, i64 %indvars.iv36
  %20 = load ptr, ptr %9, align 8
  %.not20.us = icmp eq ptr %20, null
  %..us = select i1 %.not20.us, ptr null, ptr %9
  %21 = getelementptr inbounds nuw i64, ptr %1, i64 %indvars.iv36
  %22 = load i64, ptr %21, align 8
  call fastcc void @fill_val(ptr noundef nonnull %19, ptr noundef %..us, ptr noundef %10, ptr noundef %8, ptr noundef nonnull %5, i64 noundef %22, i1 noundef zeroext true)
  %indvars.iv.next37 = add nuw nsw i64 %indvars.iv36, 1
  %exitcond40.not = icmp eq i64 %indvars.iv.next37, %wide.trip.count44
  br i1 %exitcond40.not, label %._crit_edge, label %.lr.ph.split.us.split, !llvm.loop !8

.lr.ph.split:                                     ; preds = %.lr.ph
  br i1 %.not21, label %.lr.ph.split.split.us, label %.lr.ph.split.split

.lr.ph.split.split.us:                            ; preds = %.lr.ph.split, %.lr.ph.split.split.us
  %indvars.iv31 = phi i64 [ %indvars.iv.next32, %.lr.ph.split.split.us ], [ 0, %.lr.ph.split ]
  %23 = getelementptr inbounds nuw [0 x %struct.CompactAttribute], ptr %16, i64 0, i64 %indvars.iv31
  %24 = load ptr, ptr %9, align 8
  %.not20.us25 = icmp eq ptr %24, null
  %..us26 = select i1 %.not20.us25, ptr null, ptr %9
  %25 = getelementptr inbounds nuw i8, ptr %2, i64 %indvars.iv31
  %26 = load i8, ptr %25, align 1, !range !4, !noundef !5
  %27 = icmp ne i8 %26, 0
  call fastcc void @fill_val(ptr noundef nonnull %23, ptr noundef %..us26, ptr noundef %10, ptr noundef %8, ptr noundef nonnull %5, i64 noundef 0, i1 noundef zeroext %27)
  %indvars.iv.next32 = add nuw nsw i64 %indvars.iv31, 1
  %exitcond35.not = icmp eq i64 %indvars.iv.next32, %wide.trip.count44
  br i1 %exitcond35.not, label %._crit_edge, label %.lr.ph.split.split.us, !llvm.loop !8

.lr.ph.split.split:                               ; preds = %.lr.ph.split, %.lr.ph.split.split
  %indvars.iv = phi i64 [ %indvars.iv.next, %.lr.ph.split.split ], [ 0, %.lr.ph.split ]
  %28 = getelementptr inbounds nuw [0 x %struct.CompactAttribute], ptr %16, i64 0, i64 %indvars.iv
  %29 = load ptr, ptr %9, align 8
  %.not20 = icmp eq ptr %29, null
  %. = select i1 %.not20, ptr null, ptr %9
  %30 = getelementptr inbounds nuw i64, ptr %1, i64 %indvars.iv
  %31 = load i64, ptr %30, align 8
  %32 = getelementptr inbounds nuw i8, ptr %2, i64 %indvars.iv
  %33 = load i8, ptr %32, align 1, !range !4, !noundef !5
  %34 = icmp ne i8 %33, 0
  call fastcc void @fill_val(ptr noundef nonnull %28, ptr noundef %., ptr noundef %10, ptr noundef %8, ptr noundef nonnull %5, i64 noundef %31, i1 noundef zeroext %34)
  %indvars.iv.next = add nuw nsw i64 %indvars.iv, 1
  %exitcond.not = icmp eq i64 %indvars.iv.next, %wide.trip.count44
  br i1 %exitcond.not, label %._crit_edge, label %.lr.ph.split.split, !llvm.loop !8

._crit_edge:                                      ; preds = %.lr.ph.split.split, %.lr.ph.split.split.us, %.lr.ph.split.us.split, %.lr.ph.split.us.split.us, %7
  call void @llvm.lifetime.end.p0(i64 4, ptr nonnull %10) #12
  call void @llvm.lifetime.end.p0(i64 8, ptr nonnull %9) #12
  ret void
}